target datalayout = "e-m:e-p270:32:32-p271:32:32-p272:64:64-i64:64-i128:128-f80:128-n8:16:32:64-S128"
target triple = "x86_64-pc-linux-gnu"

%"struct.std::__detail::_Hash_node_base" = type { ptr }
%"struct.std::__detail::_Prime_rehash_policy" = type { float, i64 }
%"class.WasmEdge::LLVM::Context" = type { ptr }
%"class.WasmEdge::LLVM::Message" = type { ptr }
%"struct.WasmEdge::LLVM::Compiler::CompileContext" = type { %"class.WasmEdge::LLVM::Context", ptr, %"class.WasmEdge::LLVM::Attribute", %"class.WasmEdge::LLVM::Attribute", %"class.WasmEdge::LLVM::Attribute", %"class.WasmEdge::LLVM::Attribute", %"class.WasmEdge::LLVM::Attribute", %"class.WasmEdge::LLVM::Attribute", %"class.WasmEdge::LLVM::Attribute", %"class.WasmEdge::LLVM::Attribute", %"class.WasmEdge::LLVM::Type", %"class.WasmEdge::LLVM::Type", %"class.WasmEdge::LLVM::Type", %"class.WasmEdge::LLVM::Type", %"class.WasmEdge::LLVM::Type", %"class.WasmEdge::LLVM::Type", %"class.WasmEdge::LLVM::Type", %"class.WasmEdge::LLVM::Type", %"class.WasmEdge::LLVM::Type", %"class.WasmEdge::LLVM::Type", %"class.WasmEdge::LLVM::Type", %"class.WasmEdge::LLVM::Type", %"class.WasmEdge::LLVM::Type", %"class.WasmEdge::LLVM::Type", %"class.WasmEdge::LLVM::Type", %"class.WasmEdge::LLVM::Type", %"class.WasmEdge::LLVM::Type", %"class.WasmEdge::LLVM::Type", %"class.WasmEdge::LLVM::Type", %"class.WasmEdge::LLVM::Type", %"class.WasmEdge::LLVM::Type", %"class.WasmEdge::LLVM::Type", %"class.WasmEdge::LLVM::Type", %"class.WasmEdge::LLVM::Message", i8, i8, i8, i8, %"class.std::vector.84", %"class.std::vector.89", %"class.std::vector.94", %"class.std::vector.99", %"class.WasmEdge::LLVM::Value", %"struct.WasmEdge::LLVM::FunctionCallee" }
%"class.WasmEdge::LLVM::Attribute" = type { ptr }
%"class.WasmEdge::LLVM::Type" = type { ptr }
%"class.std::vector.84" = type { %"struct.std::_Vector_base.85" }
%"struct.std::_Vector_base.85" = type { %"struct.std::_Vector_base<const WasmEdge::AST::FunctionType *, std::allocator<const WasmEdge::AST::FunctionType *>>::_Vector_impl" }
%"struct.std::_Vector_base<const WasmEdge::AST::FunctionType *, std::allocator<const WasmEdge::AST::FunctionType *>>::_Vector_impl" = type { %"struct.std::_Vector_base<const WasmEdge::AST::FunctionType *, std::allocator<const WasmEdge::AST::FunctionType *>>::_Vector_impl_data" }
%"struct.std::_Vector_base<const WasmEdge::AST::FunctionType *, std::allocator<const WasmEdge::AST::FunctionType *>>::_Vector_impl_data" = type { ptr, ptr, ptr }
%"class.std::vector.89" = type { %"struct.std::_Vector_base.90" }
%"struct.std::_Vector_base.90" = type { %"struct.std::_Vector_base<WasmEdge::LLVM::Value, std::allocator<WasmEdge::LLVM::Value>>::_Vector_impl" }
%"struct.std::_Vector_base<WasmEdge::LLVM::Value, std::allocator<WasmEdge::LLVM::Value>>::_Vector_impl" = type { %"struct.std::_Vector_base<WasmEdge::LLVM::Value, std::allocator<WasmEdge::LLVM::Value>>::_Vector_impl_data" }
%"struct.std::_Vector_base<WasmEdge::LLVM::Value, std::allocator<WasmEdge::LLVM::Value>>::_Vector_impl_data" = type { ptr, ptr, ptr }
%"class.std::vector.94" = type { %"struct.std::_Vector_base.95" }
%"struct.std::_Vector_base.95" = type { %"struct.std::_Vector_base<std::tuple<unsigned int, WasmEdge::LLVM::FunctionCallee, const WasmEdge::AST::CodeSegment *>, std::allocator<std::tuple<unsigned int, WasmEdge::LLVM::FunctionCallee, const WasmEdge::AST::CodeSegment *>>>::_Vector_impl" }
%"struct.std::_Vector_base<std::tuple<unsigned int, WasmEdge::LLVM::FunctionCallee, const WasmEdge::AST::CodeSegment *>, std::allocator<std::tuple<unsigned int, WasmEdge::LLVM::FunctionCallee, const WasmEdge::AST::CodeSegment *>>>::_Vector_impl" = type { %"struct.std::_Vector_base<std::tuple<unsigned int, WasmEdge::LLVM::FunctionCallee, const WasmEdge::AST::CodeSegment *>, std::allocator<std::tuple<unsigned int, WasmEdge::LLVM::FunctionCallee, const WasmEdge::AST::CodeSegment *>>>::_Vector_impl_data" }
%"struct.std::_Vector_base<std::tuple<unsigned int, WasmEdge::LLVM::FunctionCallee, const WasmEdge::AST::CodeSegment *>, std::allocator<std::tuple<unsigned int, WasmEdge::LLVM::FunctionCallee, const WasmEdge::AST::CodeSegment *>>>::_Vector_impl_data" = type { ptr, ptr, ptr }
%"class.std::vector.99" = type { %"struct.std::_Vector_base.100" }
%"struct.std::_Vector_base.100" = type { %"struct.std::_Vector_base<WasmEdge::LLVM::Type, std::allocator<WasmEdge::LLVM::Type>>::_Vector_impl" }
%"struct.std::_Vector_base<WasmEdge::LLVM::Type, std::allocator<WasmEdge::LLVM::Type>>::_Vector_impl" = type { %"struct.std::_Vector_base<WasmEdge::LLVM::Type, std::allocator<WasmEdge::LLVM::Type>>::_Vector_impl_data" }
%"struct.std::_Vector_base<WasmEdge::LLVM::Type, std::allocator<WasmEdge::LLVM::Type>>::_Vector_impl_data" = type { ptr, ptr, ptr }
%"class.WasmEdge::LLVM::Value" = type { ptr }
%"struct.WasmEdge::LLVM::FunctionCallee" = type { %"class.WasmEdge::LLVM::Type", %"class.WasmEdge::LLVM::Value" }
%"class.WasmEdge::LLVM::Builder" = type { ptr }
%"class.(anonymous namespace)::FunctionCompiler" = type { ptr, %"class.WasmEdge::LLVM::Context", %"class.std::vector.170", %"class.std::vector.89", %"class.WasmEdge::LLVM::Value", %"class.WasmEdge::LLVM::Value", %"class.std::unordered_map", i8, i8, %"class.std::vector.194", %"struct.WasmEdge::LLVM::FunctionCallee", %"class.WasmEdge::LLVM::Value", %"class.WasmEdge::LLVM::Builder" }
%"class.std::vector.170" = type { %"struct.std::_Vector_base.171" }
%"struct.std::_Vector_base.171" = type { %"struct.std::_Vector_base<std::pair<WasmEdge::LLVM::Type, WasmEdge::LLVM::Value>, std::allocator<std::pair<WasmEdge::LLVM::Type, WasmEdge::LLVM::Value>>>::_Vector_impl" }
%"struct.std::_Vector_base<std::pair<WasmEdge::LLVM::Type, WasmEdge::LLVM::Value>, std::allocator<std::pair<WasmEdge::LLVM::Type, WasmEdge::LLVM::Value>>>::_Vector_impl" = type { %"struct.std::_Vector_base<std::pair<WasmEdge::LLVM::Type, WasmEdge::LLVM::Value>, std::allocator<std::pair<WasmEdge::LLVM::Type, WasmEdge::LLVM::Value>>>::_Vector_impl_data" }
%"struct.std::_Vector_base<std::pair<WasmEdge::LLVM::Type, WasmEdge::LLVM::Value>, std::allocator<std::pair<WasmEdge::LLVM::Type, WasmEdge::LLVM::Value>>>::_Vector_impl_data" = type { ptr, ptr, ptr }
%"class.std::unordered_map" = type { %"class.std::_Hashtable.175" }
%"class.std::_Hashtable.175" = type { ptr, i64, %"struct.std::__detail::_Hash_node_base", i64, %"struct.std::__detail::_Prime_rehash_policy", ptr }
%"class.std::vector.194" = type { %"struct.std::_Vector_base.195" }
%"struct.std::_Vector_base.195" = type { %"struct.std::_Vector_base<(anonymous namespace)::FunctionCompiler::Control, std::allocator<(anonymous namespace)::FunctionCompiler::Control>>::_Vector_impl" }
%"struct.std::_Vector_base<(anonymous namespace)::FunctionCompiler::Control, std::allocator<(anonymous namespace)::FunctionCompiler::Control>>::_Vector_impl" = type { %"struct.std::_Vector_base<(anonymous namespace)::FunctionCompiler::Control, std::allocator<(anonymous namespace)::FunctionCompiler::Control>>::_Vector_impl_data" }
%"struct.std::_Vector_base<(anonymous namespace)::FunctionCompiler::Control, std::allocator<(anonymous namespace)::FunctionCompiler::Control>>::_Vector_impl_data" = type { ptr, ptr, ptr }
%"class.__gnu_cxx::__normal_iterator.224" = type { ptr }
%class.anon.372 = type { ptr }

@.str.11 = private unnamed_addr constant [1 x i8] zeroinitializer, align 1
@_ZN8WasmEdge4LLVM4Core4FabsE = linkonce_odr global i32 0, comdat, align 4

; Function Attrs: mustprogress nounwind uwtable
define linkonce_odr void @_ZSt4swapIP15LLVMOpaqueValueENSt9enable_ifIXsr6__and_ISt6__not_ISt15__is_tuple_likeIT_EESt21is_move_constructibleIS5_ESt18is_move_assignableIS5_EEE5valueEvE4typeERS5_SE_(ptr noundef nonnull align 8 dereferenceable(8) %0, ptr noundef nonnull align 8 dereferenceable(8) %1) #0 comdat {
  %3 = alloca ptr, align 8
  %4 = alloca ptr, align 8
  %5 = alloca ptr, align 8
  store ptr %0, ptr %3, align 8
  store ptr %1, ptr %4, align 8
  %6 = load ptr, ptr %3, align 8
  %7 = load ptr, ptr %6, align 8
  store ptr %7, ptr %5, align 8
  %8 = load ptr, ptr %4, align 8
  %9 = load ptr, ptr %8, align 8
  %10 = load ptr, ptr %3, align 8
  store ptr %9, ptr %10, align 8
  %11 = load ptr, ptr %5, align 8
  %12 = load ptr, ptr %4, align 8
  store ptr %11, ptr %12, align 8
  ret void
}

; Function Attrs: mustprogress nounwind uwtable
define linkonce_odr hidden void @_ZN9__gnu_cxx17__normal_iteratorIPN8WasmEdge4LLVM5ValueESt6vectorIS3_SaIS3_EEEC2ERKS4_(ptr noundef nonnull align 8 dereferenceable(8) %0, ptr noundef nonnull align 8 dereferenceable(8) %1) unnamed_addr #0 comdat align 2 {
  %3 = alloca ptr, align 8
  %4 = alloca ptr, align 8
  store ptr %0, ptr %3, align 8
  store ptr %1, ptr %4, align 8
  %5 = load ptr, ptr %3, align 8
  %6 = getelementptr inbounds %"class.__gnu_cxx::__normal_iterator.224", ptr %5, i32 0, i32 0
  %7 = load ptr, ptr %4, align 8
  %8 = load ptr, ptr %7, align 8
  store ptr %8, ptr %6, align 8
  ret void
}

; Function Attrs: mustprogress nounwind uwtable
define linkonce_odr hidden void @_ZN8WasmEdge4LLVM4swapERNS0_5ValueES2_(ptr noundef nonnull align 8 dereferenceable(8) %0, ptr noundef nonnull align 8 dereferenceable(8) %1) #0 comdat {
  %3 = alloca ptr, align 8
  %4 = alloca ptr, align 8
  store ptr %0, ptr %3, align 8
  store ptr %1, ptr %4, align 8
  %5 = load ptr, ptr %3, align 8
  %6 = getelementptr inbounds %"class.WasmEdge::LLVM::Value", ptr %5, i32 0, i32 0
  %7 = load ptr, ptr %4, align 8
  %8 = getelementptr inbounds %"class.WasmEdge::LLVM::Value", ptr %7, i32 0, i32 0
  call void @_ZSt4swapIP15LLVMOpaqueValueENSt9enable_ifIXsr6__and_ISt6__not_ISt15__is_tuple_likeIT_EESt21is_move_constructibleIS5_ESt18is_move_assignableIS5_EEE5valueEvE4typeERS5_SE_(ptr noundef nonnull align 8 dereferenceable(8) %6, ptr noundef nonnull align 8 dereferenceable(8) %8) #12
  ret void
}

; Function Attrs: mustprogress nounwind uwtable
define linkonce_odr hidden void @_ZN8WasmEdge4LLVM5ValueC2EP15LLVMOpaqueValue(ptr noundef nonnull align 8 dereferenceable(8) %0, ptr noundef %1) unnamed_addr #0 comdat align 2 {
  %3 = alloca ptr, align 8
  %4 = alloca ptr, align 8
  store ptr %0, ptr %3, align 8
  store ptr %1, ptr %4, align 8
  %5 = load ptr, ptr %3, align 8
  %6 = getelementptr inbounds %"class.WasmEdge::LLVM::Value", ptr %5, i32 0, i32 0
  %7 = load ptr, ptr %4, align 8
  store ptr %7, ptr %6, align 8
  ret void
}

; Function Attrs: mustprogress nounwind uwtable
define linkonce_odr hidden noundef nonnull align 8 dereferenceable(8) ptr @_ZN8WasmEdge4LLVM4Type6unwrapEv(ptr noundef nonnull align 8 dereferenceable(8) %0) #0 comdat align 2 {
  %2 = alloca ptr, align 8
  store ptr %0, ptr %2, align 8
  %3 = load ptr, ptr %2, align 8
  %4 = getelementptr inbounds %"class.WasmEdge::LLVM::Type", ptr %3, i32 0, i32 0
  ret ptr %4
}

; Function Attrs: mustprogress nounwind uwtable
define linkonce_odr hidden noundef nonnull align 8 dereferenceable(8) ptr @_ZN8WasmEdge4LLVM5Value6unwrapEv(ptr noundef nonnull align 8 dereferenceable(8) %0) #0 comdat align 2 {
  %2 = alloca ptr, align 8
  store ptr %0, ptr %2, align 8
  %3 = load ptr, ptr %2, align 8
  %4 = getelementptr inbounds %"class.WasmEdge::LLVM::Value", ptr %3, i32 0, i32 0
  ret ptr %4
}

; Function Attrs: mustprogress nounwind uwtable
define linkonce_odr hidden noundef nonnull align 8 dereferenceable(8) ptr @_ZNK9__gnu_cxx17__normal_iteratorIPN8WasmEdge4LLVM5ValueESt6vectorIS3_SaIS3_EEEdeEv(ptr noundef nonnull align 8 dereferenceable(8) %0) #0 comdat align 2 {
  %2 = alloca ptr, align 8
  store ptr %0, ptr %2, align 8
  %3 = load ptr, ptr %2, align 8
  %4 = getelementptr inbounds %"class.__gnu_cxx::__normal_iterator.224", ptr %3, i32 0, i32 0
  %5 = load ptr, ptr %4, align 8
  ret ptr %5
}

; Function Attrs: mustprogress nounwind uwtable
define linkonce_odr hidden ptr @_ZNK9__gnu_cxx17__normal_iteratorIPN8WasmEdge4LLVM5ValueESt6vectorIS3_SaIS3_EEEmiEl(ptr noundef nonnull align 8 dereferenceable(8) %0, i64 noundef %1) #0 comdat align 2 {
  %3 = alloca %"class.__gnu_cxx::__normal_iterator.224", align 8
  %4 = alloca ptr, align 8
  %5 = alloca i64, align 8
  %6 = alloca ptr, align 8
  store ptr %0, ptr %4, align 8
  store i64 %1, ptr %5, align 8
  %7 = load ptr, ptr %4, align 8
  %8 = getelementptr inbounds %"class.__gnu_cxx::__normal_iterator.224", ptr %7, i32 0, i32 0
  %9 = load ptr, ptr %8, align 8
  %10 = load i64, ptr %5, align 8
  %11 = sub i64 0, %10
  %12 = getelementptr inbounds %"class.WasmEdge::LLVM::Value", ptr %9, i64 %11
  store ptr %12, ptr %6, align 8
  call void @_ZN9__gnu_cxx17__normal_iteratorIPN8WasmEdge4LLVM5ValueESt6vectorIS3_SaIS3_EEEC2ERKS4_(ptr noundef nonnull align 8 dereferenceable(8) %3, ptr noundef nonnull align 8 dereferenceable(8) %6) #12
  %13 = getelementptr inbounds %"class.__gnu_cxx::__normal_iterator.224", ptr %3, i32 0, i32 0
  %14 = load ptr, ptr %13, align 8
  ret ptr %14
}

; Function Attrs: mustprogress nounwind uwtable
define linkonce_odr hidden ptr @_ZNSt6vectorIN8WasmEdge4LLVM5ValueESaIS2_EE3endEv(ptr noundef nonnull align 8 dereferenceable(24) %0) #0 comdat align 2 {
  %2 = alloca %"class.__gnu_cxx::__normal_iterator.224", align 8
  %3 = alloca ptr, align 8
  store ptr %0, ptr %3, align 8
  %4 = load ptr, ptr %3, align 8
  %5 = getelementptr inbounds %"struct.std::_Vector_base.90", ptr %4, i32 0, i32 0
  %6 = getelementptr inbounds %"struct.std::_Vector_base<WasmEdge::LLVM::Value, std::allocator<WasmEdge::LLVM::Value>>::_Vector_impl_data", ptr %5, i32 0, i32 1
  call void @_ZN9__gnu_cxx17__normal_iteratorIPN8WasmEdge4LLVM5ValueESt6vectorIS3_SaIS3_EEEC2ERKS4_(ptr noundef nonnull align 8 dereferenceable(8) %2, ptr noundef nonnull align 8 dereferenceable(8) %6) #12
  %7 = getelementptr inbounds %"class.__gnu_cxx::__normal_iterator.224", ptr %2, i32 0, i32 0
  %8 = load ptr, ptr %7, align 8
  ret ptr %8
}

; Function Attrs: mustprogress nounwind uwtable
define linkonce_odr hidden noundef nonnull align 8 dereferenceable(8) ptr @_ZN8WasmEdge4LLVM5ValueaSEOS1_(ptr noundef nonnull align 8 dereferenceable(8) %0, ptr noundef nonnull align 8 dereferenceable(8) %1) #0 comdat align 2 {
  %3 = alloca ptr, align 8
  %4 = alloca ptr, align 8
  store ptr %0, ptr %3, align 8
  store ptr %1, ptr %4, align 8
  %5 = load ptr, ptr %3, align 8
  %6 = load ptr, ptr %4, align 8
  call void @_ZN8WasmEdge4LLVM4swapERNS0_5ValueES2_(ptr noundef nonnull align 8 dereferenceable(8) %5, ptr noundef nonnull align 8 dereferenceable(8) %6) #12
  ret ptr %5
}

; Function Attrs: mustprogress nounwind uwtable
define internal void @_ZZN12_GLOBAL__N_116FunctionCompiler17compileVectorFAbsEN8WasmEdge4LLVM4TypeEENKUlT_E_clINS2_5ValueEEEDaS4_(ptr dead_on_unwind noalias writable sret(%"class.WasmEdge::LLVM::Value") align 8 %0, ptr noundef nonnull align 8 dereferenceable(8) %1, ptr noundef %2) #0 align 2 {
  %4 = alloca ptr, align 8
  %5 = alloca ptr, align 8
  %6 = alloca ptr, align 8
  %7 = alloca %"class.WasmEdge::LLVM::Value", align 8
  store ptr %0, ptr %4, align 8
  store ptr %1, ptr %5, align 8
  store ptr %2, ptr %6, align 8
  %8 = load ptr, ptr %5, align 8
  %9 = getelementptr inbounds %class.anon.372, ptr %8, i32 0, i32 0
  %10 = load ptr, ptr %9, align 8
  %11 = load i32, ptr @_ZN8WasmEdge4LLVM4Core4FabsE, align 4
  %12 = icmp ne i32 %11, 0
  br i1 %12, label %13, label %14

13:                                               ; preds = %3
  br label %16

14:                                               ; preds = %3
  unreachable

15:                                               ; No predecessors!
  br label %16

16:                                               ; preds = %15, %13
  %17 = getelementptr inbounds %"class.(anonymous namespace)::FunctionCompiler", ptr %10, i32 0, i32 12
  %18 = load i32, ptr @_ZN8WasmEdge4LLVM4Core4FabsE, align 4
  call void @llvm.memcpy.p0.p0.i64(ptr align 8 %7, ptr align 8 %2, i64 8, i1 false)
  call void @_ZN8WasmEdge4LLVM7Builder20createUnaryIntrinsicEjNS0_5ValueEPKc(ptr dead_on_unwind writable sret(%"class.WasmEdge::LLVM::Value") align 8 %0, ptr noundef nonnull align 8 dereferenceable(8) %17, i32 noundef %18, ptr noundef %7, ptr noundef @.str.11) #12
  ret void
}

; Function Attrs: mustprogress nounwind uwtable
define linkonce_odr hidden void @_ZN8WasmEdge4LLVM7Builder13createBitCastENS0_5ValueENS0_4TypeEPKc(ptr dead_on_unwind noalias writable sret(%"class.WasmEdge::LLVM::Value") align 8 %0, ptr noundef nonnull align 8 dereferenceable(8) %1, ptr noundef %2, ptr noundef %3, ptr noundef %4) #0 comdat align 2 {
  %6 = alloca ptr, align 8
  %7 = alloca ptr, align 8
  %8 = alloca ptr, align 8
  %9 = alloca ptr, align 8
  %10 = alloca ptr, align 8
  store ptr %0, ptr %6, align 8
  store ptr %1, ptr %7, align 8
  store ptr %2, ptr %8, align 8
  store ptr %3, ptr %9, align 8
  store ptr %4, ptr %10, align 8
  %11 = load ptr, ptr %7, align 8
  %12 = getelementptr inbounds %"class.WasmEdge::LLVM::Builder", ptr %11, i32 0, i32 0
  %13 = load ptr, ptr %12, align 8
  %14 = call noundef nonnull align 8 dereferenceable(8) ptr @_ZN8WasmEdge4LLVM5Value6unwrapEv(ptr noundef nonnull align 8 dereferenceable(8) %2) #12
  %15 = load ptr, ptr %14, align 8
  %16 = call noundef nonnull align 8 dereferenceable(8) ptr @_ZN8WasmEdge4LLVM4Type6unwrapEv(ptr noundef nonnull align 8 dereferenceable(8) %3) #12
  %17 = load ptr, ptr %16, align 8
  %18 = load ptr, ptr %10, align 8
  %19 = call ptr @LLVMBuildBitCast(ptr noundef %13, ptr noundef %15, ptr noundef %17, ptr noundef %18)
  call void @_ZN8WasmEdge4LLVM5ValueC2EP15LLVMOpaqueValue(ptr noundef nonnull align 8 dereferenceable(8) %0, ptr noundef %19) #12
  ret void
}

; Function Attrs: mustprogress nounwind uwtable
define linkonce_odr hidden noundef nonnull align 8 dereferenceable(8) ptr @_ZNSt6vectorIN8WasmEdge4LLVM5ValueESaIS2_EE4backEv(ptr noundef nonnull align 8 dereferenceable(24) %0) #0 comdat align 2 {
  %2 = alloca ptr, align 8
  %3 = alloca %"class.__gnu_cxx::__normal_iterator.224", align 8
  %4 = alloca %"class.__gnu_cxx::__normal_iterator.224", align 8
  store ptr %0, ptr %2, align 8
  %5 = load ptr, ptr %2, align 8
  %6 = call ptr @_ZNSt6vectorIN8WasmEdge4LLVM5ValueESaIS2_EE3endEv(ptr noundef nonnull align 8 dereferenceable(24) %5) #12
  %7 = getelementptr inbounds %"class.__gnu_cxx::__normal_iterator.224", ptr %4, i32 0, i32 0
  store ptr %6, ptr %7, align 8
  %8 = call ptr @_ZNK9__gnu_cxx17__normal_iteratorIPN8WasmEdge4LLVM5ValueESt6vectorIS3_SaIS3_EEEmiEl(ptr noundef nonnull align 8 dereferenceable(8) %4, i64 noundef 1) #12
  %9 = getelementptr inbounds %"class.__gnu_cxx::__normal_iterator.224", ptr %3, i32 0, i32 0
  store ptr %8, ptr %9, align 8
  %10 = call noundef nonnull align 8 dereferenceable(8) ptr @_ZNK9__gnu_cxx17__normal_iteratorIPN8WasmEdge4LLVM5ValueESt6vectorIS3_SaIS3_EEEdeEv(ptr noundef nonnull align 8 dereferenceable(8) %3) #12
  ret ptr %10
}

; Function Attrs: mustprogress nounwind uwtable
define internal void @_ZN12_GLOBAL__N_116FunctionCompiler15compileVectorOpIZNS0_17compileVectorFAbsEN8WasmEdge4LLVM4TypeEEUlT_E_EEvS4_OS5_(ptr noundef nonnull align 8 dereferenceable(200) %0, ptr noundef %1, ptr noundef nonnull align 8 dereferenceable(8) %2) #0 align 2 {
  %4 = alloca ptr, align 8
  %5 = alloca ptr, align 8
  %6 = alloca ptr, align 8
  %7 = alloca %"class.WasmEdge::LLVM::Value", align 8
  %8 = alloca %"class.WasmEdge::LLVM::Value", align 8
  %9 = alloca %"class.WasmEdge::LLVM::Type", align 8
  %10 = alloca %"class.WasmEdge::LLVM::Value", align 8
  %11 = alloca %"class.WasmEdge::LLVM::Value", align 8
  %12 = alloca %"class.WasmEdge::LLVM::Value", align 8
  %13 = alloca %"class.WasmEdge::LLVM::Type", align 8
  store ptr %0, ptr %4, align 8
  store ptr %1, ptr %5, align 8
  store ptr %2, ptr %6, align 8
  %14 = load ptr, ptr %4, align 8
  %15 = getelementptr inbounds %"class.(anonymous namespace)::FunctionCompiler", ptr %14, i32 0, i32 12
  %16 = getelementptr inbounds %"class.(anonymous namespace)::FunctionCompiler", ptr %14, i32 0, i32 3
  %17 = call noundef nonnull align 8 dereferenceable(8) ptr @_ZNSt6vectorIN8WasmEdge4LLVM5ValueESaIS2_EE4backEv(ptr noundef nonnull align 8 dereferenceable(24) %16) #12
  call void @llvm.memcpy.p0.p0.i64(ptr align 8 %8, ptr align 8 %17, i64 8, i1 false)
  call void @llvm.memcpy.p0.p0.i64(ptr align 8 %9, ptr align 8 %1, i64 8, i1 false)
  call void @_ZN8WasmEdge4LLVM7Builder13createBitCastENS0_5ValueENS0_4TypeEPKc(ptr dead_on_unwind writable sret(%"class.WasmEdge::LLVM::Value") align 8 %7, ptr noundef nonnull align 8 dereferenceable(8) %15, ptr noundef %8, ptr noundef %9, ptr noundef @.str.11) #12
  %18 = getelementptr inbounds %"class.(anonymous namespace)::FunctionCompiler", ptr %14, i32 0, i32 12
  %19 = load ptr, ptr %6, align 8
  call void @llvm.memcpy.p0.p0.i64(ptr align 8 %12, ptr align 8 %7, i64 8, i1 false)
  call void @_ZZN12_GLOBAL__N_116FunctionCompiler17compileVectorFAbsEN8WasmEdge4LLVM4TypeEENKUlT_E_clINS2_5ValueEEEDaS4_(ptr dead_on_unwind writable sret(%"class.WasmEdge::LLVM::Value") align 8 %11, ptr noundef nonnull align 8 dereferenceable(8) %19, ptr noundef %12) #12
  %20 = getelementptr inbounds %"class.(anonymous namespace)::FunctionCompiler", ptr %14, i32 0, i32 0
  %21 = load ptr, ptr %20, align 8
  %22 = getelementptr inbounds %"struct.WasmEdge::LLVM::Compiler::CompileContext", ptr %21, i32 0, i32 22
  call void @llvm.memcpy.p0.p0.i64(ptr align 8 %13, ptr align 8 %22, i64 8, i1 false)
  call void @_ZN8WasmEdge4LLVM7Builder13createBitCastENS0_5ValueENS0_4TypeEPKc(ptr dead_on_unwind writable sret(%"class.WasmEdge::LLVM::Value") align 8 %10, ptr noundef nonnull align 8 dereferenceable(8) %18, ptr noundef %11, ptr noundef %13, ptr noundef @.str.11) #12
  %23 = getelementptr inbounds %"class.(anonymous namespace)::FunctionCompiler", ptr %14, i32 0, i32 3
  %24 = call noundef nonnull align 8 dereferenceable(8) ptr @_ZNSt6vectorIN8WasmEdge4LLVM5ValueESaIS2_EE4backEv(ptr noundef nonnull align 8 dereferenceable(24) %23) #12
  %25 = call noundef nonnull align 8 dereferenceable(8) ptr @_ZN8WasmEdge4LLVM5ValueaSEOS1_(ptr noundef nonnull align 8 dereferenceable(8) %24, ptr noundef nonnull align 8 dereferenceable(8) %10) #12
  ret void
}

; Function Attrs: mustprogress nounwind uwtable
define internal void @_ZN12_GLOBAL__N_116FunctionCompiler17compileVectorFAbsEN8WasmEdge4LLVM4TypeE(ptr noundef nonnull align 8 dereferenceable(200) %0, ptr noundef %1) #0 align 2 {
  %3 = alloca ptr, align 8
  %4 = alloca ptr, align 8
  %5 = alloca %"class.WasmEdge::LLVM::Type", align 8
  %6 = alloca %class.anon.372, align 8
  store ptr %0, ptr %3, align 8
  store ptr %1, ptr %4, align 8
  %7 = load ptr, ptr %3, align 8
  call void @llvm.memcpy.p0.p0.i64(ptr align 8 %5, ptr align 8 %1, i64 8, i1 false)
  %8 = getelementptr inbounds %class.anon.372, ptr %6, i32 0, i32 0
  store ptr %7, ptr %8, align 8
  call void @_ZN12_GLOBAL__N_116FunctionCompiler15compileVectorOpIZNS0_17compileVectorFAbsEN8WasmEdge4LLVM4TypeEEUlT_E_EEvS4_OS5_(ptr noundef nonnull align 8 dereferenceable(200) %7, ptr noundef %5, ptr noundef nonnull align 8 dereferenceable(8) %6) #12
  ret void
}